(dp0
S'this'
p1
(lp2
S'is'
p3
aS'a'
p4
asS'with'
p5
(g4
ccopy_reg
_reconstructor
p6
(c__main__
MyObject
p7
c__builtin__
object
p8
Ntp9
Rp10
(dp11
S'foo'
p12
I1
sS'bar'
p13
S'quux'
p14
sbtp15
sS'relatively'
p16
(dp17
S'complicated'
p18
S'object'
p19
ss.